; Function Attrs: nounwind uwtable
define zeroext i1 @SDL_RenderDebugTextFormat(ptr noundef %0, float noundef %1, float noundef %2, ptr noundef %3, ...) local_unnamed_addr #0 {
  %5 = alloca [128 x i8], align 16
  %6 = alloca ptr, align 8
  %7 = alloca [1 x %struct.__va_list_tag], align 16
  call void @llvm.lifetime.start.p0(i64 128, ptr nonnull %5) #12
  call void @llvm.lifetime.start.p0(i64 8, ptr nonnull %6) #12
  store ptr %5, ptr %6, align 8
  call void @llvm.lifetime.start.p0(i64 24, ptr nonnull %7) #12
  call void @llvm.va_start.p0(ptr nonnull %7)
  %8 = load ptr, ptr getelementptr inbounds nuw (i8, ptr @jump_table, i64 9272), align 8
  %9 = call i32 %8(ptr noundef nonnull %5, i64 noundef 128, ptr noundef %3, ptr noundef nonnull %7) #12
  call void @llvm.va_end.p0(ptr nonnull %7)
  %or.cond = icmp sgt i32 %9, 127
  br i1 %or.cond, label %10, label %13

10:                                               ; preds = %4
  store ptr null, ptr %6, align 8
  call void @llvm.va_start.p0(ptr nonnull %7)
  %11 = load ptr, ptr getelementptr inbounds nuw (i8, ptr @jump_table, i64 9264), align 8
  %12 = call i32 %11(ptr noundef nonnull %6, ptr noundef %3, ptr noundef nonnull %7) #12
  call void @llvm.va_end.p0(ptr nonnull %7)
  %.pre12.pre = load ptr, ptr %6, align 8
  br label %13

13:                                               ; preds = %10, %4
  %.pre12 = phi ptr [ %.pre12.pre, %10 ], [ %5, %4 ]
  %.010 = phi i32 [ %12, %10 ], [ %9, %4 ]
  %14 = icmp sgt i32 %.010, -1
  br i1 %14, label %15, label %18

15:                                               ; preds = %13
  %16 = load ptr, ptr getelementptr inbounds nuw (i8, ptr @jump_table, i64 9640), align 8
  %17 = call zeroext i1 (ptr, float, float, ptr, ...) %16(ptr noundef %0, float noundef %1, float noundef %2, ptr noundef nonnull @.str, ptr noundef %.pre12) #12
  %.pre = load ptr, ptr %6, align 8
  br label %18

18:                                               ; preds = %15, %13
  %19 = phi ptr [ %.pre, %15 ], [ %.pre12, %13 ]
  %.0 = phi i1 [ %17, %15 ], [ false, %13 ]
  %.not = icmp eq ptr %19, %5
  br i1 %.not, label %22, label %20

20:                                               ; preds = %18
  %21 = load ptr, ptr getelementptr inbounds nuw (i8, ptr @jump_table, i64 8288), align 8
  call void %21(ptr noundef %19) #12
  br label %22

22:                                               ; preds = %20, %18
  call void @llvm.lifetime.end.p0(i64 24, ptr nonnull %7) #12
  call void @llvm.lifetime.end.p0(i64 8, ptr nonnull %6) #12
  call void @llvm.lifetime.end.p0(i64 128, ptr nonnull %5) #12
  ret i1 %.0
}